; Function Attrs: nounwind uwtable
define internal range(i32 -2147483648, 1) i32 @hwmap_query_formats(ptr readnone captures(none) %0, ptr noundef readonly captures(none) %1, ptr noundef readonly captures(none) %2) #1 {
  %4 = tail call ptr @ff_all_formats(i32 noundef 0) #5
  %5 = load ptr, ptr %1, align 8, !tbaa !20
  %6 = tail call i32 @ff_formats_ref(ptr noundef %4, ptr noundef %5) #5
  %7 = icmp slt i32 %6, 0
  br i1 %7, label %12, label %8

8:                                                ; preds = %3
  %9 = tail call ptr @ff_all_formats(i32 noundef 0) #5
  %10 = load ptr, ptr %2, align 8, !tbaa !20
  %11 = tail call i32 @ff_formats_ref(ptr noundef %9, ptr noundef %10) #5
  %spec.select = tail call i32 @llvm.smin.i32(i32 %11, i32 0)
  br label %12

12:                                               ; preds = %8, %3
  %.03 = phi i32 [ %6, %3 ], [ %spec.select, %8 ]
  ret i32 %.03
}